; Function Attrs: null_pointer_is_valid sspstrong uwtable
define internal i32 @dissect_t38_T30_indicator(ptr noundef %0, i32 noundef %1, ptr noundef %2, ptr noundef %3, i32 noundef %4) #0 {
  %6 = tail call i32 @dissect_per_enumerated(ptr noundef %0, i32 noundef %1, ptr noundef %2, ptr noundef %3, i32 noundef %4, i32 noundef 16, ptr noundef nonnull @T30ind_value, i1 noundef zeroext true, i32 noundef 7, ptr noundef null)
  %.b6 = load i1, ptr @primary_part, align 1
  br i1 %.b6, label %.thread, label %7

7:                                                ; preds = %5
  %8 = getelementptr inbounds nuw i8, ptr %2, i64 16
  %9 = load ptr, ptr %8, align 8
  %10 = getelementptr inbounds nuw i8, ptr %9, i64 8
  %11 = load ptr, ptr %10, align 8
  %12 = load i32, ptr @T30ind_value, align 4
  %13 = tail call ptr @val_to_str_const(i32 noundef %12, ptr noundef nonnull @t38_T30_indicator_vals, ptr noundef nonnull @.str.162)
  tail call void (ptr, i32, ptr, ...) @col_append_fstr(ptr noundef %11, i32 noundef 25, ptr noundef nonnull @.str.161, ptr noundef %13)
  %.b.pr = load i1, ptr @primary_part, align 1
  br i1 %.b.pr, label %.thread, label %14

14:                                               ; preds = %7
  %15 = load i32, ptr @T30ind_value, align 4
  %16 = load ptr, ptr @t38_info, align 8
  %17 = getelementptr inbounds nuw i8, ptr %16, i64 8
  store i32 %15, ptr %17, align 8
  br label %.thread

.thread:                                          ; preds = %5, %14, %7
  ret i32 %6
}